target datalayout = "e-m:e-p270:32:32-p271:32:32-p272:64:64-i64:64-i128:128-f80:128-n8:16:32:64-S128"
target triple = "x86_64-pc-linux-gnu"

; Function Attrs: nounwind uwtable
define hidden void @VP8LBundleColorMap_C(ptr noundef %0, i32 noundef %1, i32 noundef %2, ptr noundef %3) #0 {
  %5 = alloca ptr, align 8
  %6 = alloca i32, align 4
  %7 = alloca i32, align 4
  %8 = alloca ptr, align 8
  %9 = alloca i32, align 4
  %10 = alloca i32, align 4
  %11 = alloca i32, align 4
  %12 = alloca i32, align 4
  %13 = alloca i32, align 4
  store ptr %0, ptr %5, align 8
  store i32 %1, ptr %6, align 4
  store i32 %2, ptr %7, align 4
  store ptr %3, ptr %8, align 8
  %14 = load i32, ptr %7, align 4
  %15 = icmp sgt i32 %14, 0
  br i1 %15, label %16, label %59

16:                                               ; preds = %4
  %17 = load i32, ptr %7, align 4
  %18 = sub nsw i32 3, %17
  %19 = shl i32 1, %18
  store i32 %19, ptr %10, align 4
  %20 = load i32, ptr %7, align 4
  %21 = shl i32 1, %20
  %22 = sub nsw i32 %21, 1
  store i32 %22, ptr %11, align 4
  store i32 -16777216, ptr %12, align 4
  store i32 0, ptr %9, align 4
  br label %23

23:                                               ; preds = %55, %16
  %24 = load i32, ptr %9, align 4
  %25 = load i32, ptr %6, align 4
  %26 = icmp slt i32 %24, %25
  br i1 %26, label %27, label %58

27:                                               ; preds = %23
  %28 = load i32, ptr %9, align 4
  %29 = load i32, ptr %11, align 4
  %30 = and i32 %28, %29
  store i32 %30, ptr %13, align 4
  %31 = load i32, ptr %13, align 4
  %32 = icmp eq i32 %31, 0
  br i1 %32, label %33, label %34

33:                                               ; preds = %27
  store i32 -16777216, ptr %12, align 4
  br label %34

34:                                               ; preds = %33, %27
  %35 = load ptr, ptr %5, align 8
  %36 = load i32, ptr %9, align 4
  %37 = sext i32 %36 to i64
  %38 = getelementptr inbounds i8, ptr %35, i64 %37
  %39 = load i8, ptr %38, align 1
  %40 = zext i8 %39 to i32
  %41 = load i32, ptr %10, align 4
  %42 = load i32, ptr %13, align 4
  %43 = mul nsw i32 %41, %42
  %44 = add nsw i32 8, %43
  %45 = shl i32 %40, %44
  %46 = load i32, ptr %12, align 4
  %47 = or i32 %46, %45
  store i32 %47, ptr %12, align 4
  %48 = load i32, ptr %12, align 4
  %49 = load ptr, ptr %8, align 8
  %50 = load i32, ptr %9, align 4
  %51 = load i32, ptr %7, align 4
  %52 = ashr i32 %50, %51
  %53 = sext i32 %52 to i64
  %54 = getelementptr inbounds i32, ptr %49, i64 %53
  store i32 %48, ptr %54, align 4
  br label %55

55:                                               ; preds = %34
  %56 = load i32, ptr %9, align 4
  %57 = add nsw i32 %56, 1
  store i32 %57, ptr %9, align 4
  br label %23, !llvm.loop !12

58:                                               ; preds = %23
  br label %81

59:                                               ; preds = %4
  store i32 0, ptr %9, align 4
  br label %60

60:                                               ; preds = %77, %59
  %61 = load i32, ptr %9, align 4
  %62 = load i32, ptr %6, align 4
  %63 = icmp slt i32 %61, %62
  br i1 %63, label %64, label %80

64:                                               ; preds = %60
  %65 = load ptr, ptr %5, align 8
  %66 = load i32, ptr %9, align 4
  %67 = sext i32 %66 to i64
  %68 = getelementptr inbounds i8, ptr %65, i64 %67
  %69 = load i8, ptr %68, align 1
  %70 = zext i8 %69 to i32
  %71 = shl i32 %70, 8
  %72 = or i32 -16777216, %71
  %73 = load ptr, ptr %8, align 8
  %74 = load i32, ptr %9, align 4
  %75 = sext i32 %74 to i64
  %76 = getelementptr inbounds i32, ptr %73, i64 %75
  store i32 %72, ptr %76, align 4
  br label %77

77:                                               ; preds = %64
  %78 = load i32, ptr %9, align 4
  %79 = add nsw i32 %78, 1
  store i32 %79, ptr %9, align 4
  br label %60, !llvm.loop !13

80:                                               ; preds = %60
  br label %81

81:                                               ; preds = %80, %58
  ret void
}