; Function Attrs: nofree norecurse nosync nounwind memory(argmem: readwrite) uwtable
define hidden void @VP8LBundleColorMap_C(ptr nocapture noundef readonly %0, i32 noundef %1, i32 noundef %2, ptr nocapture noundef writeonly %3) #2 {
  %5 = icmp sgt i32 %2, 0
  br i1 %5, label %7, label %.preheader

.preheader:                                       ; preds = %4
  %6 = icmp sgt i32 %1, 0
  br i1 %6, label %.lr.ph.preheader, label %.loopexit

.lr.ph.preheader:                                 ; preds = %.preheader
  %wide.trip.count = zext nneg i32 %1 to i64
  br label %.lr.ph

7:                                                ; preds = %4
  %8 = sub nsw i32 3, %2
  %notmask = shl nsw i32 -1, %2
  %9 = xor i32 %notmask, -1
  %10 = icmp sgt i32 %1, 0
  br i1 %10, label %.lr.ph31.preheader, label %.loopexit

.lr.ph31.preheader:                               ; preds = %7
  %wide.trip.count37 = zext nneg i32 %1 to i64
  br label %.lr.ph31

.lr.ph31:                                         ; preds = %.lr.ph31.preheader, %.lr.ph31
  %indvars.iv34 = phi i64 [ 0, %.lr.ph31.preheader ], [ %indvars.iv.next35, %.lr.ph31 ]
  %.02429 = phi i32 [ -16777216, %.lr.ph31.preheader ], [ %20, %.lr.ph31 ]
  %11 = trunc nuw nsw i64 %indvars.iv34 to i32
  %12 = and i32 %11, %9
  %13 = icmp eq i32 %12, 0
  %spec.select = select i1 %13, i32 -16777216, i32 %.02429
  %14 = getelementptr inbounds i8, ptr %0, i64 %indvars.iv34
  %15 = load i8, ptr %14, align 1
  %16 = zext i8 %15 to i32
  %17 = shl nsw i32 %12, %8
  %18 = add nuw nsw i32 %17, 8
  %19 = shl i32 %16, %18
  %20 = or i32 %19, %spec.select
  %21 = lshr i32 %11, %2
  %22 = zext nneg i32 %21 to i64
  %23 = getelementptr inbounds i32, ptr %3, i64 %22
  store i32 %20, ptr %23, align 4
  %indvars.iv.next35 = add nuw nsw i64 %indvars.iv34, 1
  %exitcond38.not = icmp eq i64 %indvars.iv.next35, %wide.trip.count37
  br i1 %exitcond38.not, label %.loopexit, label %.lr.ph31, !llvm.loop !12

.lr.ph:                                           ; preds = %.lr.ph.preheader, %.lr.ph
  %indvars.iv = phi i64 [ 0, %.lr.ph.preheader ], [ %indvars.iv.next, %.lr.ph ]
  %24 = getelementptr inbounds i8, ptr %0, i64 %indvars.iv
  %25 = load i8, ptr %24, align 1
  %26 = zext i8 %25 to i32
  %27 = shl nuw nsw i32 %26, 8
  %28 = or disjoint i32 %27, -16777216
  %29 = getelementptr inbounds i32, ptr %3, i64 %indvars.iv
  store i32 %28, ptr %29, align 4
  %indvars.iv.next = add nuw nsw i64 %indvars.iv, 1
  %exitcond.not = icmp eq i64 %indvars.iv.next, %wide.trip.count
  br i1 %exitcond.not, label %.loopexit, label %.lr.ph, !llvm.loop !13

.loopexit:                                        ; preds = %.lr.ph, %.lr.ph31, %.preheader, %7
  ret void
}